; Function Attrs: nounwind uwtable
define ptr @l_Lean_Lsp_instFromJsonTrace(ptr noundef %0) local_unnamed_addr #0 {
  %2 = tail call ptr @l_Lean_Json_getStr_x3f(ptr noundef %0) #6
  %3 = ptrtoint ptr %2 to i64
  %4 = and i64 %3, 1
  %.not.i35 = icmp eq i64 %4, 0
  br i1 %.not.i35, label %lean_obj_tag.exit.thread, label %lean_obj_tag.exit

lean_obj_tag.exit:                                ; preds = %1
  %5 = and i64 %3, 8589934590
  %6 = icmp eq i64 %5, 0
  br i1 %6, label %lean_dec.exit26, label %15

lean_obj_tag.exit.thread:                         ; preds = %1
  %7 = getelementptr i8, ptr %2, i64 4
  %.val.i = load i32, ptr %7, align 4
  %8 = icmp ult i32 %.val.i, 16777216
  br i1 %8, label %.thread, label %15

.thread:                                          ; preds = %lean_obj_tag.exit.thread
  %9 = load i32, ptr %2, align 4, !tbaa !4
  %10 = icmp sgt i32 %9, 1
  br i1 %10, label %11, label %13, !prof !11

11:                                               ; preds = %.thread
  %12 = add nsw i32 %9, -1
  store i32 %12, ptr %2, align 4, !tbaa !4
  br label %lean_dec.exit26

13:                                               ; preds = %.thread
  %.not.i = icmp eq i32 %9, 0
  br i1 %.not.i, label %lean_dec.exit26, label %14

14:                                               ; preds = %13
  tail call void @lean_dec_ref_cold(ptr noundef nonnull %2) #6
  br label %lean_dec.exit26

15:                                               ; preds = %lean_obj_tag.exit.thread, %lean_obj_tag.exit
  %16 = getelementptr inbounds nuw i8, ptr %2, i64 8
  %17 = load ptr, ptr %16, align 8, !tbaa !9
  %18 = ptrtoint ptr %17 to i64
  %19 = and i64 %18, 1
  %.not = icmp eq i64 %19, 0
  br i1 %.not, label %20, label %lean_inc.exit

20:                                               ; preds = %15
  %.val.i36 = load i32, ptr %17, align 4, !tbaa !4
  %21 = icmp sgt i32 %.val.i36, 0
  br i1 %21, label %22, label %24, !prof !11

22:                                               ; preds = %20
  %23 = add nuw i32 %.val.i36, 1
  store i32 %23, ptr %17, align 4, !tbaa !4
  br label %lean_inc.exit

24:                                               ; preds = %20
  %.not.i37 = icmp eq i32 %.val.i36, 0
  br i1 %.not.i37, label %lean_inc.exit, label %25

25:                                               ; preds = %24
  tail call void @lean_inc_ref_cold(ptr noundef nonnull %17) #6
  br label %lean_inc.exit

lean_inc.exit:                                    ; preds = %25, %24, %22, %15
  br i1 %.not.i35, label %26, label %lean_dec.exit25

26:                                               ; preds = %lean_inc.exit
  %27 = load i32, ptr %2, align 4, !tbaa !4
  %28 = icmp sgt i32 %27, 1
  br i1 %28, label %29, label %31, !prof !11

29:                                               ; preds = %26
  %30 = add nsw i32 %27, -1
  store i32 %30, ptr %2, align 4, !tbaa !4
  br label %lean_dec.exit25

31:                                               ; preds = %26
  %.not.i27 = icmp eq i32 %27, 0
  br i1 %.not.i27, label %lean_dec.exit25, label %32

32:                                               ; preds = %31
  tail call void @lean_dec_ref_cold(ptr noundef nonnull %2) #6
  br label %lean_dec.exit25

lean_dec.exit25:                                  ; preds = %32, %31, %29, %lean_inc.exit
  %33 = load ptr, ptr @l_Lean_Lsp_instFromJsonTrace___closed__3, align 8, !tbaa !9
  %34 = icmp eq ptr %17, %33
  br i1 %34, label %lean_string_dec_eq.exit.thread45, label %35

35:                                               ; preds = %lean_dec.exit25
  %36 = getelementptr i8, ptr %17, i64 8
  %.val.i.i = load i64, ptr %36, align 8, !tbaa !12
  %37 = getelementptr i8, ptr %33, i64 8
  %.val7.i.i = load i64, ptr %37, align 8, !tbaa !12
  %38 = icmp eq i64 %.val.i.i, %.val7.i.i
  br i1 %38, label %lean_string_dec_eq.exit, label %lean_string_dec_eq.exit.thread

lean_string_dec_eq.exit:                          ; preds = %35
  %39 = tail call zeroext i1 @lean_string_eq_cold(ptr noundef nonnull %17, ptr noundef nonnull %33) #6
  br i1 %39, label %lean_string_dec_eq.exit.thread45, label %lean_string_dec_eq.exit.thread

lean_string_dec_eq.exit.thread:                   ; preds = %35, %lean_string_dec_eq.exit
  %40 = load ptr, ptr @l_Lean_Lsp_instFromJsonTrace___closed__4, align 8, !tbaa !9
  %41 = icmp eq ptr %17, %40
  br i1 %41, label %lean_string_dec_eq.exit40.thread46, label %42

42:                                               ; preds = %lean_string_dec_eq.exit.thread
  %.val.i.i38 = load i64, ptr %36, align 8, !tbaa !12
  %43 = getelementptr i8, ptr %40, i64 8
  %.val7.i.i39 = load i64, ptr %43, align 8, !tbaa !12
  %44 = icmp eq i64 %.val.i.i38, %.val7.i.i39
  br i1 %44, label %lean_string_dec_eq.exit40, label %lean_string_dec_eq.exit40.thread

lean_string_dec_eq.exit40:                        ; preds = %42
  %45 = tail call zeroext i1 @lean_string_eq_cold(ptr noundef nonnull %17, ptr noundef nonnull %40) #6
  br i1 %45, label %lean_string_dec_eq.exit40.thread46, label %lean_string_dec_eq.exit40.thread

lean_string_dec_eq.exit40.thread:                 ; preds = %42, %lean_string_dec_eq.exit40
  %46 = load ptr, ptr @l_Lean_Lsp_instFromJsonTrace___closed__5, align 8, !tbaa !9
  %47 = icmp eq ptr %17, %46
  br i1 %47, label %lean_string_dec_eq.exit43, label %48

48:                                               ; preds = %lean_string_dec_eq.exit40.thread
  %.val.i.i41 = load i64, ptr %36, align 8, !tbaa !12
  %49 = getelementptr i8, ptr %46, i64 8
  %.val7.i.i42 = load i64, ptr %49, align 8, !tbaa !12
  %50 = icmp eq i64 %.val.i.i41, %.val7.i.i42
  br i1 %50, label %51, label %lean_string_dec_eq.exit43

51:                                               ; preds = %48
  %52 = tail call zeroext i1 @lean_string_eq_cold(ptr noundef nonnull %17, ptr noundef nonnull %46) #6
  %53 = select i1 %52, ptr @l_Lean_Lsp_instFromJsonTrace___closed__6, ptr @l_Lean_Lsp_instFromJsonTrace___closed__2
  br label %lean_string_dec_eq.exit43

lean_string_dec_eq.exit43:                        ; preds = %lean_string_dec_eq.exit40.thread, %48, %51
  %l_Lean_Lsp_instFromJsonTrace___closed__2.l_Lean_Lsp_instFromJsonTrace___closed__6 = phi ptr [ @l_Lean_Lsp_instFromJsonTrace___closed__6, %lean_string_dec_eq.exit40.thread ], [ @l_Lean_Lsp_instFromJsonTrace___closed__2, %48 ], [ %53, %51 ]
  br i1 %.not, label %54, label %lean_dec.exit26

54:                                               ; preds = %lean_string_dec_eq.exit43
  %55 = load i32, ptr %17, align 4, !tbaa !4
  %56 = icmp sgt i32 %55, 1
  br i1 %56, label %57, label %59, !prof !11

57:                                               ; preds = %54
  %58 = add nsw i32 %55, -1
  store i32 %58, ptr %17, align 4, !tbaa !4
  br label %lean_dec.exit26

59:                                               ; preds = %54
  %.not.i29 = icmp eq i32 %55, 0
  br i1 %.not.i29, label %lean_dec.exit26, label %60

60:                                               ; preds = %59
  tail call void @lean_dec_ref_cold(ptr noundef nonnull %17) #6
  br label %lean_dec.exit26

lean_string_dec_eq.exit40.thread46:               ; preds = %lean_string_dec_eq.exit.thread, %lean_string_dec_eq.exit40
  br i1 %.not, label %61, label %lean_dec.exit26

61:                                               ; preds = %lean_string_dec_eq.exit40.thread46
  %62 = load i32, ptr %17, align 4, !tbaa !4
  %63 = icmp sgt i32 %62, 1
  br i1 %63, label %64, label %66, !prof !11

64:                                               ; preds = %61
  %65 = add nsw i32 %62, -1
  store i32 %65, ptr %17, align 4, !tbaa !4
  br label %lean_dec.exit26

66:                                               ; preds = %61
  %.not.i31 = icmp eq i32 %62, 0
  br i1 %.not.i31, label %lean_dec.exit26, label %67

67:                                               ; preds = %66
  tail call void @lean_dec_ref_cold(ptr noundef nonnull %17) #6
  br label %lean_dec.exit26

lean_string_dec_eq.exit.thread45:                 ; preds = %lean_dec.exit25, %lean_string_dec_eq.exit
  br i1 %.not, label %68, label %lean_dec.exit26

68:                                               ; preds = %lean_string_dec_eq.exit.thread45
  %69 = load i32, ptr %17, align 4, !tbaa !4
  %70 = icmp sgt i32 %69, 1
  br i1 %70, label %71, label %73, !prof !11

71:                                               ; preds = %68
  %72 = add nsw i32 %69, -1
  store i32 %72, ptr %17, align 4, !tbaa !4
  br label %lean_dec.exit26

73:                                               ; preds = %68
  %.not.i33 = icmp eq i32 %69, 0
  br i1 %.not.i33, label %lean_dec.exit26, label %74

74:                                               ; preds = %73
  tail call void @lean_dec_ref_cold(ptr noundef nonnull %17) #6
  br label %lean_dec.exit26

lean_dec.exit26:                                  ; preds = %lean_string_dec_eq.exit43, %57, %59, %60, %lean_obj_tag.exit, %lean_string_dec_eq.exit.thread45, %71, %73, %74, %lean_string_dec_eq.exit40.thread46, %64, %66, %67, %11, %13, %14
  %.0.in = phi ptr [ @l_Lean_Lsp_instFromJsonTrace___closed__2, %14 ], [ @l_Lean_Lsp_instFromJsonTrace___closed__2, %13 ], [ @l_Lean_Lsp_instFromJsonTrace___closed__2, %11 ], [ @l_Lean_Lsp_instFromJsonTrace___closed__7, %67 ], [ @l_Lean_Lsp_instFromJsonTrace___closed__7, %66 ], [ @l_Lean_Lsp_instFromJsonTrace___closed__7, %64 ], [ @l_Lean_Lsp_instFromJsonTrace___closed__7, %lean_string_dec_eq.exit40.thread46 ], [ @l_Lean_Lsp_instFromJsonTrace___closed__8, %74 ], [ @l_Lean_Lsp_instFromJsonTrace___closed__8, %73 ], [ @l_Lean_Lsp_instFromJsonTrace___closed__8, %71 ], [ @l_Lean_Lsp_instFromJsonTrace___closed__8, %lean_string_dec_eq.exit.thread45 ], [ @l_Lean_Lsp_instFromJsonTrace___closed__2, %lean_obj_tag.exit ], [ %l_Lean_Lsp_instFromJsonTrace___closed__2.l_Lean_Lsp_instFromJsonTrace___closed__6, %60 ], [ %l_Lean_Lsp_instFromJsonTrace___closed__2.l_Lean_Lsp_instFromJsonTrace___closed__6, %59 ], [ %l_Lean_Lsp_instFromJsonTrace___closed__2.l_Lean_Lsp_instFromJsonTrace___closed__6, %57 ], [ %l_Lean_Lsp_instFromJsonTrace___closed__2.l_Lean_Lsp_instFromJsonTrace___closed__6, %lean_string_dec_eq.exit43 ]
  %.0 = load ptr, ptr %.0.in, align 8, !tbaa !9
  ret ptr %.0
}